target datalayout = "e-m:e-p270:32:32-p271:32:32-p272:64:64-i64:64-i128:128-f80:128-n8:16:32:64-S128"
target triple = "x86_64-pc-linux-gnu"

%struct.Buf_Man_t_ = type { i32, i32, i32, ptr, ptr, ptr, ptr, ptr, ptr, ptr, i32, i32, i32, float, ptr, ptr, ptr, ptr, ptr, i32, i32, i32, i32, i32 }
%struct.Vec_Que_t_ = type { i32, i32, ptr, ptr, ptr }

; Function Attrs: inlinehint nounwind uwtable
define internal float @Vec_QuePrio(ptr noundef %0, i32 noundef %1) #2 {
  %3 = alloca ptr, align 8
  %4 = alloca i32, align 4
  store ptr %0, ptr %3, align 8, !tbaa !108
  store i32 %1, ptr %4, align 4, !tbaa !8
  %5 = load ptr, ptr %3, align 8, !tbaa !108
  %6 = getelementptr inbounds nuw %struct.Vec_Que_t_, ptr %5, i32 0, i32 4
  %7 = load ptr, ptr %6, align 8, !tbaa !139
  %8 = load ptr, ptr %7, align 8, !tbaa !167
  %9 = icmp ne ptr %8, null
  br i1 %9, label %10, label %19

10:                                               ; preds = %2
  %11 = load ptr, ptr %3, align 8, !tbaa !108
  %12 = getelementptr inbounds nuw %struct.Vec_Que_t_, ptr %11, i32 0, i32 4
  %13 = load ptr, ptr %12, align 8, !tbaa !139
  %14 = load ptr, ptr %13, align 8, !tbaa !167
  %15 = load i32, ptr %4, align 4, !tbaa !8
  %16 = sext i32 %15 to i64
  %17 = getelementptr inbounds float, ptr %14, i64 %16
  %18 = load float, ptr %17, align 4, !tbaa !83
  br label %22

19:                                               ; preds = %2
  %20 = load i32, ptr %4, align 4, !tbaa !8
  %21 = sitofp i32 %20 to float
  br label %22

22:                                               ; preds = %19, %10
  %23 = phi float [ %18, %10 ], [ %21, %19 ]
  ret float %23
}

; Function Attrs: inlinehint nounwind uwtable
define internal void @Vec_QueMoveDown(ptr noundef %0, i32 noundef %1) #2 {
  %3 = alloca ptr, align 8
  %4 = alloca i32, align 4
  %5 = alloca float, align 4
  %6 = alloca i32, align 4
  %7 = alloca i32, align 4
  store ptr %0, ptr %3, align 8, !tbaa !108
  store i32 %1, ptr %4, align 4, !tbaa !8
  call void @llvm.lifetime.start.p0(i64 4, ptr %5) #9
  %8 = load ptr, ptr %3, align 8, !tbaa !108
  %9 = load i32, ptr %4, align 4, !tbaa !8
  %10 = call float @Vec_QuePrio(ptr noundef %8, i32 noundef %9)
  store float %10, ptr %5, align 4, !tbaa !83
  call void @llvm.lifetime.start.p0(i64 4, ptr %6) #9
  %11 = load ptr, ptr %3, align 8, !tbaa !108
  %12 = getelementptr inbounds nuw %struct.Vec_Que_t_, ptr %11, i32 0, i32 3
  %13 = load ptr, ptr %12, align 8, !tbaa !112
  %14 = load i32, ptr %4, align 4, !tbaa !8
  %15 = sext i32 %14 to i64
  %16 = getelementptr inbounds i32, ptr %13, i64 %15
  %17 = load i32, ptr %16, align 4, !tbaa !8
  store i32 %17, ptr %6, align 4, !tbaa !8
  call void @llvm.lifetime.start.p0(i64 4, ptr %7) #9
  %18 = load i32, ptr %6, align 4, !tbaa !8
  %19 = shl i32 %18, 1
  store i32 %19, ptr %7, align 4, !tbaa !8
  br label %20

20:                                               ; preds = %70, %2
  %21 = load i32, ptr %7, align 4, !tbaa !8
  %22 = load ptr, ptr %3, align 8, !tbaa !108
  %23 = getelementptr inbounds nuw %struct.Vec_Que_t_, ptr %22, i32 0, i32 1
  %24 = load i32, ptr %23, align 4, !tbaa !113
  %25 = icmp slt i32 %21, %24
  br i1 %25, label %26, label %100

26:                                               ; preds = %20
  %27 = load i32, ptr %7, align 4, !tbaa !8
  %28 = add nsw i32 %27, 1
  %29 = load ptr, ptr %3, align 8, !tbaa !108
  %30 = getelementptr inbounds nuw %struct.Vec_Que_t_, ptr %29, i32 0, i32 1
  %31 = load i32, ptr %30, align 4, !tbaa !113
  %32 = icmp slt i32 %28, %31
  br i1 %32, label %33, label %57

33:                                               ; preds = %26
  %34 = load ptr, ptr %3, align 8, !tbaa !108
  %35 = load ptr, ptr %3, align 8, !tbaa !108
  %36 = getelementptr inbounds nuw %struct.Vec_Que_t_, ptr %35, i32 0, i32 2
  %37 = load ptr, ptr %36, align 8, !tbaa !114
  %38 = load i32, ptr %7, align 4, !tbaa !8
  %39 = sext i32 %38 to i64
  %40 = getelementptr inbounds i32, ptr %37, i64 %39
  %41 = load i32, ptr %40, align 4, !tbaa !8
  %42 = call float @Vec_QuePrio(ptr noundef %34, i32 noundef %41)
  %43 = load ptr, ptr %3, align 8, !tbaa !108
  %44 = load ptr, ptr %3, align 8, !tbaa !108
  %45 = getelementptr inbounds nuw %struct.Vec_Que_t_, ptr %44, i32 0, i32 2
  %46 = load ptr, ptr %45, align 8, !tbaa !114
  %47 = load i32, ptr %7, align 4, !tbaa !8
  %48 = add nsw i32 %47, 1
  %49 = sext i32 %48 to i64
  %50 = getelementptr inbounds i32, ptr %46, i64 %49
  %51 = load i32, ptr %50, align 4, !tbaa !8
  %52 = call float @Vec_QuePrio(ptr noundef %43, i32 noundef %51)
  %53 = fcmp olt float %42, %52
  br i1 %53, label %54, label %57

54:                                               ; preds = %33
  %55 = load i32, ptr %7, align 4, !tbaa !8
  %56 = add nsw i32 %55, 1
  store i32 %56, ptr %7, align 4, !tbaa !8
  br label %57

57:                                               ; preds = %54, %33, %26
  %58 = load float, ptr %5, align 4, !tbaa !83
  %59 = load ptr, ptr %3, align 8, !tbaa !108
  %60 = load ptr, ptr %3, align 8, !tbaa !108
  %61 = getelementptr inbounds nuw %struct.Vec_Que_t_, ptr %60, i32 0, i32 2
  %62 = load ptr, ptr %61, align 8, !tbaa !114
  %63 = load i32, ptr %7, align 4, !tbaa !8
  %64 = sext i32 %63 to i64
  %65 = getelementptr inbounds i32, ptr %62, i64 %64
  %66 = load i32, ptr %65, align 4, !tbaa !8
  %67 = call float @Vec_QuePrio(ptr noundef %59, i32 noundef %66)
  %68 = fcmp oge float %58, %67
  br i1 %68, label %69, label %70

69:                                               ; preds = %57
  br label %100

70:                                               ; preds = %57
  %71 = load ptr, ptr %3, align 8, !tbaa !108
  %72 = getelementptr inbounds nuw %struct.Vec_Que_t_, ptr %71, i32 0, i32 2
  %73 = load ptr, ptr %72, align 8, !tbaa !114
  %74 = load i32, ptr %7, align 4, !tbaa !8
  %75 = sext i32 %74 to i64
  %76 = getelementptr inbounds i32, ptr %73, i64 %75
  %77 = load i32, ptr %76, align 4, !tbaa !8
  %78 = load ptr, ptr %3, align 8, !tbaa !108
  %79 = getelementptr inbounds nuw %struct.Vec_Que_t_, ptr %78, i32 0, i32 2
  %80 = load ptr, ptr %79, align 8, !tbaa !114
  %81 = load i32, ptr %6, align 4, !tbaa !8
  %82 = sext i32 %81 to i64
  %83 = getelementptr inbounds i32, ptr %80, i64 %82
  store i32 %77, ptr %83, align 4, !tbaa !8
  %84 = load i32, ptr %6, align 4, !tbaa !8
  %85 = load ptr, ptr %3, align 8, !tbaa !108
  %86 = getelementptr inbounds nuw %struct.Vec_Que_t_, ptr %85, i32 0, i32 3
  %87 = load ptr, ptr %86, align 8, !tbaa !112
  %88 = load ptr, ptr %3, align 8, !tbaa !108
  %89 = getelementptr inbounds nuw %struct.Vec_Que_t_, ptr %88, i32 0, i32 2
  %90 = load ptr, ptr %89, align 8, !tbaa !114
  %91 = load i32, ptr %6, align 4, !tbaa !8
  %92 = sext i32 %91 to i64
  %93 = getelementptr inbounds i32, ptr %90, i64 %92
  %94 = load i32, ptr %93, align 4, !tbaa !8
  %95 = sext i32 %94 to i64
  %96 = getelementptr inbounds i32, ptr %87, i64 %95
  store i32 %84, ptr %96, align 4, !tbaa !8
  %97 = load i32, ptr %7, align 4, !tbaa !8
  store i32 %97, ptr %6, align 4, !tbaa !8
  %98 = load i32, ptr %7, align 4, !tbaa !8
  %99 = shl i32 %98, 1
  store i32 %99, ptr %7, align 4, !tbaa !8
  br label %20, !llvm.loop !166

100:                                              ; preds = %69, %20
  %101 = load i32, ptr %4, align 4, !tbaa !8
  %102 = load ptr, ptr %3, align 8, !tbaa !108
  %103 = getelementptr inbounds nuw %struct.Vec_Que_t_, ptr %102, i32 0, i32 2
  %104 = load ptr, ptr %103, align 8, !tbaa !114
  %105 = load i32, ptr %6, align 4, !tbaa !8
  %106 = sext i32 %105 to i64
  %107 = getelementptr inbounds i32, ptr %104, i64 %106
  store i32 %101, ptr %107, align 4, !tbaa !8
  %108 = load i32, ptr %6, align 4, !tbaa !8
  %109 = load ptr, ptr %3, align 8, !tbaa !108
  %110 = getelementptr inbounds nuw %struct.Vec_Que_t_, ptr %109, i32 0, i32 3
  %111 = load ptr, ptr %110, align 8, !tbaa !112
  %112 = load i32, ptr %4, align 4, !tbaa !8
  %113 = sext i32 %112 to i64
  %114 = getelementptr inbounds i32, ptr %111, i64 %113
  store i32 %108, ptr %114, align 4, !tbaa !8
  call void @llvm.lifetime.end.p0(i64 4, ptr %7) #9
  call void @llvm.lifetime.end.p0(i64 4, ptr %6) #9
  call void @llvm.lifetime.end.p0(i64 4, ptr %5) #9
  ret void
}

; Function Attrs: inlinehint nounwind uwtable
define internal i32 @Vec_QuePop(ptr noundef %0) #2 {
  %2 = alloca i32, align 4
  %3 = alloca ptr, align 8
  %4 = alloca i32, align 4
  %5 = alloca i32, align 4
  %6 = alloca i32, align 4
  store ptr %0, ptr %3, align 8, !tbaa !108
  call void @llvm.lifetime.start.p0(i64 4, ptr %4) #9
  call void @llvm.lifetime.start.p0(i64 4, ptr %5) #9
  %7 = load ptr, ptr %3, align 8, !tbaa !108
  %8 = getelementptr inbounds nuw %struct.Vec_Que_t_, ptr %7, i32 0, i32 2
  %9 = load ptr, ptr %8, align 8, !tbaa !114
  %10 = getelementptr inbounds i32, ptr %9, i64 1
  %11 = load i32, ptr %10, align 4, !tbaa !8
  store i32 %11, ptr %5, align 4, !tbaa !8
  %12 = load ptr, ptr %3, align 8, !tbaa !108
  %13 = getelementptr inbounds nuw %struct.Vec_Que_t_, ptr %12, i32 0, i32 3
  %14 = load ptr, ptr %13, align 8, !tbaa !112
  %15 = load i32, ptr %5, align 4, !tbaa !8
  %16 = sext i32 %15 to i64
  %17 = getelementptr inbounds i32, ptr %14, i64 %16
  store i32 -1, ptr %17, align 4, !tbaa !8
  %18 = load ptr, ptr %3, align 8, !tbaa !108
  %19 = getelementptr inbounds nuw %struct.Vec_Que_t_, ptr %18, i32 0, i32 1
  %20 = load i32, ptr %19, align 4, !tbaa !113
  %21 = add nsw i32 %20, -1
  store i32 %21, ptr %19, align 4, !tbaa !113
  %22 = icmp eq i32 %21, 1
  br i1 %22, label %23, label %29

23:                                               ; preds = %1
  %24 = load ptr, ptr %3, align 8, !tbaa !108
  %25 = getelementptr inbounds nuw %struct.Vec_Que_t_, ptr %24, i32 0, i32 2
  %26 = load ptr, ptr %25, align 8, !tbaa !114
  %27 = getelementptr inbounds i32, ptr %26, i64 1
  store i32 -1, ptr %27, align 4, !tbaa !8
  %28 = load i32, ptr %5, align 4, !tbaa !8
  store i32 %28, ptr %2, align 4
  store i32 1, ptr %6, align 4
  br label %61

29:                                               ; preds = %1
  %30 = load ptr, ptr %3, align 8, !tbaa !108
  %31 = getelementptr inbounds nuw %struct.Vec_Que_t_, ptr %30, i32 0, i32 2
  %32 = load ptr, ptr %31, align 8, !tbaa !114
  %33 = load ptr, ptr %3, align 8, !tbaa !108
  %34 = getelementptr inbounds nuw %struct.Vec_Que_t_, ptr %33, i32 0, i32 1
  %35 = load i32, ptr %34, align 4, !tbaa !113
  %36 = sext i32 %35 to i64
  %37 = getelementptr inbounds i32, ptr %32, i64 %36
  %38 = load i32, ptr %37, align 4, !tbaa !8
  store i32 %38, ptr %4, align 4, !tbaa !8
  %39 = load ptr, ptr %3, align 8, !tbaa !108
  %40 = getelementptr inbounds nuw %struct.Vec_Que_t_, ptr %39, i32 0, i32 2
  %41 = load ptr, ptr %40, align 8, !tbaa !114
  %42 = load ptr, ptr %3, align 8, !tbaa !108
  %43 = getelementptr inbounds nuw %struct.Vec_Que_t_, ptr %42, i32 0, i32 1
  %44 = load i32, ptr %43, align 4, !tbaa !113
  %45 = sext i32 %44 to i64
  %46 = getelementptr inbounds i32, ptr %41, i64 %45
  store i32 -1, ptr %46, align 4, !tbaa !8
  %47 = load i32, ptr %4, align 4, !tbaa !8
  %48 = load ptr, ptr %3, align 8, !tbaa !108
  %49 = getelementptr inbounds nuw %struct.Vec_Que_t_, ptr %48, i32 0, i32 2
  %50 = load ptr, ptr %49, align 8, !tbaa !114
  %51 = getelementptr inbounds i32, ptr %50, i64 1
  store i32 %47, ptr %51, align 4, !tbaa !8
  %52 = load ptr, ptr %3, align 8, !tbaa !108
  %53 = getelementptr inbounds nuw %struct.Vec_Que_t_, ptr %52, i32 0, i32 3
  %54 = load ptr, ptr %53, align 8, !tbaa !112
  %55 = load i32, ptr %4, align 4, !tbaa !8
  %56 = sext i32 %55 to i64
  %57 = getelementptr inbounds i32, ptr %54, i64 %56
  store i32 1, ptr %57, align 4, !tbaa !8
  %58 = load ptr, ptr %3, align 8, !tbaa !108
  %59 = load i32, ptr %4, align 4, !tbaa !8
  call void @Vec_QueMoveDown(ptr noundef %58, i32 noundef %59)
  %60 = load i32, ptr %5, align 4, !tbaa !8
  store i32 %60, ptr %2, align 4
  store i32 1, ptr %6, align 4
  br label %61

61:                                               ; preds = %29, %23
  call void @llvm.lifetime.end.p0(i64 4, ptr %5) #9
  call void @llvm.lifetime.end.p0(i64 4, ptr %4) #9
  %62 = load i32, ptr %2, align 4
  ret i32 %62
}

; Function Attrs: inlinehint nounwind uwtable
define internal i32 @Vec_QueSize(ptr noundef %0) #2 {
  %2 = alloca ptr, align 8
  store ptr %0, ptr %2, align 8, !tbaa !108
  %3 = load ptr, ptr %2, align 8, !tbaa !108
  %4 = getelementptr inbounds nuw %struct.Vec_Que_t_, ptr %3, i32 0, i32 1
  %5 = load i32, ptr %4, align 4, !tbaa !113
  %6 = sub nsw i32 %5, 1
  ret i32 %6
}

; Function Attrs: nounwind uwtable
define ptr @Abc_SclBufPerform(ptr noundef %0, i32 noundef %1, i32 noundef %2, i32 noundef %3, i32 noundef %4, i32 noundef %5) #0 {
  %7 = alloca ptr, align 8
  %8 = alloca i32, align 4
  %9 = alloca i32, align 4
  %10 = alloca i32, align 4
  %11 = alloca i32, align 4
  %12 = alloca i32, align 4
  %13 = alloca ptr, align 8
  %14 = alloca ptr, align 8
  %15 = alloca i32, align 4
  %16 = alloca i32, align 4
  store ptr %0, ptr %7, align 8, !tbaa !3
  store i32 %1, ptr %8, align 4, !tbaa !8
  store i32 %2, ptr %9, align 4, !tbaa !8
  store i32 %3, ptr %10, align 4, !tbaa !8
  store i32 %4, ptr %11, align 4, !tbaa !8
  store i32 %5, ptr %12, align 4, !tbaa !8
  call void @llvm.lifetime.start.p0(i64 8, ptr %13) #9
  call void @llvm.lifetime.start.p0(i64 8, ptr %14) #9
  %17 = load ptr, ptr %7, align 8, !tbaa !3
  %18 = load i32, ptr %8, align 4, !tbaa !8
  %19 = load i32, ptr %9, align 4, !tbaa !8
  %20 = load i32, ptr %10, align 4, !tbaa !8
  %21 = call ptr @Buf_ManStart(ptr noundef %17, i32 noundef %18, i32 noundef %19, i32 noundef %20)
  store ptr %21, ptr %14, align 8, !tbaa !81
  call void @llvm.lifetime.start.p0(i64 4, ptr %15) #9
  call void @llvm.lifetime.start.p0(i64 4, ptr %16) #9
  store i32 1000000000, ptr %16, align 4, !tbaa !8
  %22 = load ptr, ptr %7, align 8, !tbaa !3
  %23 = call i32 @Abc_NtkLevel(ptr noundef %22)
  store i32 0, ptr %15, align 4, !tbaa !8
  br label %24

24:                                               ; preds = %44, %6
  %25 = load i32, ptr %15, align 4, !tbaa !8
  %26 = load i32, ptr %16, align 4, !tbaa !8
  %27 = icmp slt i32 %25, %26
  br i1 %27, label %28, label %34

28:                                               ; preds = %24
  %29 = load ptr, ptr %14, align 8, !tbaa !81
  %30 = getelementptr inbounds nuw %struct.Buf_Man_t_, ptr %29, i32 0, i32 9
  %31 = load ptr, ptr %30, align 8, !tbaa !104
  %32 = call i32 @Vec_QueSize(ptr noundef %31)
  %33 = icmp ne i32 %32, 0
  br label %34

34:                                               ; preds = %28, %24
  %35 = phi i1 [ false, %24 ], [ %33, %28 ]
  br i1 %35, label %36, label %47

36:                                               ; preds = %34
  %37 = load ptr, ptr %14, align 8, !tbaa !81
  %38 = load ptr, ptr %14, align 8, !tbaa !81
  %39 = getelementptr inbounds nuw %struct.Buf_Man_t_, ptr %38, i32 0, i32 9
  %40 = load ptr, ptr %39, align 8, !tbaa !104
  %41 = call i32 @Vec_QuePop(ptr noundef %40)
  %42 = load i32, ptr %11, align 4, !tbaa !8
  %43 = load i32, ptr %12, align 4, !tbaa !8
  call void @Abc_BufPerformOne(ptr noundef %37, i32 noundef %41, i32 noundef %42, i32 noundef %43)
  br label %44

44:                                               ; preds = %36
  %45 = load i32, ptr %15, align 4, !tbaa !8
  %46 = add nsw i32 %45, 1
  store i32 %46, ptr %15, align 4, !tbaa !8
  br label %24, !llvm.loop !163

47:                                               ; preds = %34
  %48 = load ptr, ptr %14, align 8, !tbaa !81
  call void @Buf_ManStop(ptr noundef %48)
  %49 = load ptr, ptr %7, align 8, !tbaa !3
  %50 = call ptr @Abc_NtkDupDfs(ptr noundef %49)
  store ptr %50, ptr %13, align 8, !tbaa !3
  %51 = load ptr, ptr %13, align 8, !tbaa !3
  %52 = load i32, ptr %12, align 4, !tbaa !8
  %53 = call i32 @Abc_SclCheckNtk(ptr noundef %51, i32 noundef %52)
  %54 = load ptr, ptr %13, align 8, !tbaa !3
  call void @llvm.lifetime.end.p0(i64 4, ptr %16) #9
  call void @llvm.lifetime.end.p0(i64 4, ptr %15) #9
  call void @llvm.lifetime.end.p0(i64 8, ptr %14) #9
  call void @llvm.lifetime.end.p0(i64 8, ptr %13) #9
  ret ptr %54
}