; Function Attrs: nounwind uwtable
define noundef ptr @Abc_SclBufPerform(ptr noundef %0, i32 noundef %1, i32 noundef %2, i32 noundef %3, i32 noundef %4, i32 noundef %5) local_unnamed_addr #2 {
  %7 = tail call ptr @Buf_ManStart(ptr noundef %0, i32 noundef %1, i32 noundef %2, i32 noundef %3)
  %8 = tail call i32 @Abc_NtkLevel(ptr noundef %0) #17
  %9 = getelementptr inbounds nuw i8, ptr %7, i64 64
  br label %10

10:                                               ; preds = %6, %Vec_QuePop.exit
  %.019 = phi i32 [ 0, %6 ], [ %95, %Vec_QuePop.exit ]
  %11 = load ptr, ptr %9, align 8, !tbaa !98
  %12 = getelementptr i8, ptr %11, i64 4
  %.val = load i32, ptr %12, align 4, !tbaa !107
  %.not = icmp eq i32 %.val, 1
  br i1 %.not, label %.critedge, label %13

13:                                               ; preds = %10
  %14 = getelementptr inbounds nuw i8, ptr %11, i64 8
  %15 = load ptr, ptr %14, align 8, !tbaa !105
  %16 = getelementptr inbounds nuw i8, ptr %15, i64 4
  %17 = load i32, ptr %16, align 4, !tbaa !33
  %18 = getelementptr inbounds nuw i8, ptr %11, i64 16
  %19 = load ptr, ptr %18, align 8, !tbaa !102
  %20 = sext i32 %17 to i64
  %21 = getelementptr inbounds i32, ptr %19, i64 %20
  store i32 -1, ptr %21, align 4, !tbaa !33
  %22 = load i32, ptr %12, align 4, !tbaa !107
  %23 = add nsw i32 %22, -1
  store i32 %23, ptr %12, align 4, !tbaa !107
  %24 = icmp eq i32 %23, 1
  br i1 %24, label %25, label %26

25:                                               ; preds = %13
  store i32 -1, ptr %16, align 4, !tbaa !33
  br label %Vec_QuePop.exit

26:                                               ; preds = %13
  %27 = sext i32 %23 to i64
  %28 = getelementptr inbounds i32, ptr %15, i64 %27
  %29 = load i32, ptr %28, align 4, !tbaa !33
  store i32 -1, ptr %28, align 4, !tbaa !33
  store i32 %29, ptr %16, align 4, !tbaa !33
  %30 = sext i32 %29 to i64
  %31 = getelementptr inbounds i32, ptr %19, i64 %30
  store i32 1, ptr %31, align 4, !tbaa !33
  %32 = getelementptr i8, ptr %11, i64 24
  %.val.i.i = load ptr, ptr %32, align 8, !tbaa !103
  %.val.val.i.i = load ptr, ptr %.val.i.i, align 8, !tbaa !104
  %.not.i.i.i = icmp eq ptr %.val.val.i.i, null
  br i1 %.not.i.i.i, label %Vec_QuePrio.exit.i.i, label %Vec_QuePrio.exit.thread.i.i

Vec_QuePrio.exit.i.i:                             ; preds = %26
  %33 = sitofp i32 %29 to float
  %34 = load i32, ptr %12, align 4, !tbaa !107
  %35 = icmp sgt i32 %34, 2
  br i1 %35, label %.lr.ph.split.us.i.i, label %Vec_QueMoveDown.exit.i

Vec_QuePrio.exit.thread.i.i:                      ; preds = %26
  %36 = getelementptr inbounds float, ptr %.val.val.i.i, i64 %30
  %37 = load float, ptr %36, align 4, !tbaa !97
  %38 = load i32, ptr %12, align 4, !tbaa !107
  %39 = icmp sgt i32 %38, 2
  br i1 %39, label %.lr.ph.split.i.i, label %Vec_QueMoveDown.exit.i

.lr.ph.split.us.i.i:                              ; preds = %Vec_QuePrio.exit.i.i, %57
  %40 = phi i32 [ %62, %57 ], [ %34, %Vec_QuePrio.exit.i.i ]
  %.049.us.i.i = phi i32 [ %.0.us.i.i, %57 ], [ 2, %Vec_QuePrio.exit.i.i ]
  %.03548.us.i.i = phi i32 [ %.1.us.i.i, %57 ], [ 1, %Vec_QuePrio.exit.i.i ]
  %41 = or disjoint i32 %.049.us.i.i, 1
  %42 = icmp slt i32 %41, %40
  %43 = sext i32 %.049.us.i.i to i64
  br i1 %42, label %Vec_QuePrio.exit44.us.i.i, label %Vec_QuePrio.exit46.us.i.i

Vec_QuePrio.exit44.us.i.i:                        ; preds = %.lr.ph.split.us.i.i
  %44 = getelementptr inbounds i32, ptr %15, i64 %43
  %45 = load i32, ptr %44, align 4, !tbaa !33
  %46 = sitofp i32 %45 to float
  %47 = sext i32 %41 to i64
  %48 = getelementptr inbounds i32, ptr %15, i64 %47
  %49 = load i32, ptr %48, align 4, !tbaa !33
  %50 = sitofp i32 %49 to float
  %51 = fcmp olt float %46, %50
  br i1 %51, label %52, label %Vec_QuePrio.exit46.us.i.i

52:                                               ; preds = %Vec_QuePrio.exit44.us.i.i
  br label %Vec_QuePrio.exit46.us.i.i

Vec_QuePrio.exit46.us.i.i:                        ; preds = %52, %Vec_QuePrio.exit44.us.i.i, %.lr.ph.split.us.i.i
  %.pre-phi56.i.i = phi i64 [ %47, %52 ], [ %43, %Vec_QuePrio.exit44.us.i.i ], [ %43, %.lr.ph.split.us.i.i ]
  %.1.us.i.i = phi i32 [ %41, %52 ], [ %.049.us.i.i, %Vec_QuePrio.exit44.us.i.i ], [ %.049.us.i.i, %.lr.ph.split.us.i.i ]
  %53 = getelementptr inbounds i32, ptr %15, i64 %.pre-phi56.i.i
  %54 = load i32, ptr %53, align 4, !tbaa !33
  %55 = sitofp i32 %54 to float
  %56 = fcmp ult float %33, %55
  br i1 %56, label %57, label %Vec_QueMoveDown.exit.i

57:                                               ; preds = %Vec_QuePrio.exit46.us.i.i
  %58 = sext i32 %.03548.us.i.i to i64
  %59 = getelementptr inbounds i32, ptr %15, i64 %58
  store i32 %54, ptr %59, align 4, !tbaa !33
  %60 = sext i32 %54 to i64
  %61 = getelementptr inbounds i32, ptr %19, i64 %60
  store i32 %.03548.us.i.i, ptr %61, align 4, !tbaa !33
  %.0.us.i.i = shl i32 %.1.us.i.i, 1
  %62 = load i32, ptr %12, align 4, !tbaa !107
  %63 = icmp slt i32 %.0.us.i.i, %62
  br i1 %63, label %.lr.ph.split.us.i.i, label %Vec_QueMoveDown.exit.i, !llvm.loop !108

.lr.ph.split.i.i:                                 ; preds = %Vec_QuePrio.exit.thread.i.i, %87
  %64 = phi i32 [ %91, %87 ], [ %38, %Vec_QuePrio.exit.thread.i.i ]
  %.049.i.i = phi i32 [ %.0.i.i, %87 ], [ 2, %Vec_QuePrio.exit.thread.i.i ]
  %.03548.i.i = phi i32 [ %.1.i.i, %87 ], [ 1, %Vec_QuePrio.exit.thread.i.i ]
  %65 = or disjoint i32 %.049.i.i, 1
  %66 = icmp slt i32 %65, %64
  %67 = sext i32 %.049.i.i to i64
  br i1 %66, label %Vec_QuePrio.exit44.i.i, label %Vec_QuePrio.exit46.i.i

Vec_QuePrio.exit44.i.i:                           ; preds = %.lr.ph.split.i.i
  %68 = getelementptr inbounds i32, ptr %15, i64 %67
  %69 = load i32, ptr %68, align 4, !tbaa !33
  %70 = sext i32 %69 to i64
  %71 = getelementptr inbounds float, ptr %.val.val.i.i, i64 %70
  %72 = load float, ptr %71, align 4, !tbaa !97
  %73 = sext i32 %65 to i64
  %74 = getelementptr inbounds i32, ptr %15, i64 %73
  %75 = load i32, ptr %74, align 4, !tbaa !33
  %76 = sext i32 %75 to i64
  %77 = getelementptr inbounds float, ptr %.val.val.i.i, i64 %76
  %78 = load float, ptr %77, align 4, !tbaa !97
  %79 = fcmp olt float %72, %78
  br i1 %79, label %80, label %Vec_QuePrio.exit46.i.i

80:                                               ; preds = %Vec_QuePrio.exit44.i.i
  br label %Vec_QuePrio.exit46.i.i

Vec_QuePrio.exit46.i.i:                           ; preds = %80, %Vec_QuePrio.exit44.i.i, %.lr.ph.split.i.i
  %.pre-phi58.i.i = phi i64 [ %73, %80 ], [ %67, %Vec_QuePrio.exit44.i.i ], [ %67, %.lr.ph.split.i.i ]
  %.1.i.i = phi i32 [ %65, %80 ], [ %.049.i.i, %Vec_QuePrio.exit44.i.i ], [ %.049.i.i, %.lr.ph.split.i.i ]
  %81 = getelementptr inbounds i32, ptr %15, i64 %.pre-phi58.i.i
  %82 = load i32, ptr %81, align 4, !tbaa !33
  %83 = sext i32 %82 to i64
  %84 = getelementptr inbounds float, ptr %.val.val.i.i, i64 %83
  %85 = load float, ptr %84, align 4, !tbaa !97
  %86 = fcmp ult float %37, %85
  br i1 %86, label %87, label %Vec_QueMoveDown.exit.i

87:                                               ; preds = %Vec_QuePrio.exit46.i.i
  %88 = sext i32 %.03548.i.i to i64
  %89 = getelementptr inbounds i32, ptr %15, i64 %88
  store i32 %82, ptr %89, align 4, !tbaa !33
  %90 = getelementptr inbounds i32, ptr %19, i64 %83
  store i32 %.03548.i.i, ptr %90, align 4, !tbaa !33
  %.0.i.i = shl i32 %.1.i.i, 1
  %91 = load i32, ptr %12, align 4, !tbaa !107
  %92 = icmp slt i32 %.0.i.i, %91
  br i1 %92, label %.lr.ph.split.i.i, label %Vec_QueMoveDown.exit.i, !llvm.loop !108

Vec_QueMoveDown.exit.i:                           ; preds = %87, %Vec_QuePrio.exit46.i.i, %57, %Vec_QuePrio.exit46.us.i.i, %Vec_QuePrio.exit.thread.i.i, %Vec_QuePrio.exit.i.i
  %.035.lcssa.i.i = phi i32 [ 1, %Vec_QuePrio.exit.thread.i.i ], [ 1, %Vec_QuePrio.exit.i.i ], [ %.03548.us.i.i, %Vec_QuePrio.exit46.us.i.i ], [ %.1.us.i.i, %57 ], [ %.03548.i.i, %Vec_QuePrio.exit46.i.i ], [ %.1.i.i, %87 ]
  %93 = sext i32 %.035.lcssa.i.i to i64
  %94 = getelementptr inbounds i32, ptr %15, i64 %93
  store i32 %29, ptr %94, align 4, !tbaa !33
  store i32 %.035.lcssa.i.i, ptr %31, align 4, !tbaa !33
  br label %Vec_QuePop.exit

Vec_QuePop.exit:                                  ; preds = %25, %Vec_QueMoveDown.exit.i
  tail call void @Abc_BufPerformOne(ptr noundef %7, i32 noundef %17, i32 noundef %4, i32 noundef %5)
  %95 = add nuw nsw i32 %.019, 1
  %exitcond.not = icmp eq i32 %95, 1000000000
  br i1 %exitcond.not, label %.critedge, label %10, !llvm.loop !154

.critedge:                                        ; preds = %Vec_QuePop.exit, %10
  tail call void @Buf_ManStop(ptr noundef %7)
  %96 = tail call ptr @Abc_NtkDupDfs(ptr noundef %0) #17
  %97 = tail call i32 @Abc_SclCheckNtk(ptr noundef %96, i32 noundef %5)
  ret ptr %96
}